(dp0
S'focalPixel'
p1
(F0.5
F0.5
tp2
sS'tileborder'
p3
I1
sS'sobel'
p4
I00
sS'maxWidth'
p5
I1920
sS'geometry'
p6
S'1920x1012+0+0'
p7
sS'nef_dir'
p8
VC:/
p9
sS'maxHeight'
p10
I1012
sS'jpg_dir'
p11
g9
sS'scale'
p12
F1.0
sS'number_of_tiles'
p13
I1
sS'mode'
p14
I0
sS'selectedImage'
p15
(lp16
I0
asS'main_zoom'
p17
I0
sS'dir_work'
p18
S'C:\\Dropbox\\GitHub\\PicScan\\picscan'
p19
s.