(dp0
S'focalPixel'
p1
(F0.5
F0.5
tp2
sS'tileborder'
p3
I1
sS'sobel'
p4
I00
sS'maxWidth'
p5
I1920
sS'geometry'
p6
S'1920x985+0+0'
p7
sS'nef_dir'
p8
VC:/
p9
sS'maxHeight'
p10
I985
sS'histogram'
p11
I01
sS'jpg_dir'
p12
g9
sS'scale'
p13
F1.0
sS'number_of_tiles'
p14
I1
sS'mode'
p15
I0
sS'selectedImage'
p16
(lp17
I0
asS'main_zoom'
p18
I0
sS'dir_work'
p19
S'C:\\Dropbox\\GitHub\\PicScan\\picscan'
p20
s.